target datalayout = "e-m:e-p270:32:32-p271:32:32-p272:64:64-i64:64-i128:128-f80:128-n8:16:32:64-S128"
target triple = "x86_64-unknown-linux-gnu"

%"class.icu_75::RuleBasedBreakIterator" = type <{ %"class.icu_75::BreakIterator.base", i8, %struct.UText, ptr, i32, i32, i32, [4 x i8], ptr, ptr, ptr, ptr, i32, [4 x i8], ptr, %"class.icu_75::UCharCharacterIterator", i8, [7 x i8], ptr, i8, [7 x i8] }>
%"class.icu_75::BreakIterator.base" = type <{ %"class.icu_75::UObject", [157 x i8], [157 x i8], [157 x i8] }>
%"class.icu_75::UObject" = type { ptr }
%struct.UText = type { i32, i32, i32, i32, i64, i32, i32, i64, i32, i32, ptr, ptr, ptr, ptr, ptr, ptr, ptr, ptr, i64, i32, i32, i64, i32, i32 }
%"class.icu_75::UCharCharacterIterator" = type { %"class.icu_75::CharacterIterator", ptr }
%"class.icu_75::CharacterIterator" = type { %"class.icu_75::ForwardCharacterIterator", i32, i32, i32, i32 }
%"class.icu_75::ForwardCharacterIterator" = type { %"class.icu_75::UObject" }
%"class.std::type_info" = type { ptr, ptr }

; Function Attrs: mustprogress nounwind uwtable
define linkonce_odr noundef ptr @_ZNKSt9type_info4nameEv(ptr noundef nonnull align 8 dereferenceable(16) %this) #0 comdat align 2 {
entry:
  %this.addr = alloca ptr, align 8
  store ptr %this, ptr %this.addr, align 8
  %this1 = load ptr, ptr %this.addr, align 8
  %__name = getelementptr inbounds %"class.std::type_info", ptr %this1, i32 0, i32 1
  %0 = load ptr, ptr %__name, align 8
  %arrayidx = getelementptr inbounds i8, ptr %0, i64 0
  %1 = load i8, ptr %arrayidx, align 1
  %conv = sext i8 %1 to i32
  %cmp = icmp eq i32 %conv, 42
  br i1 %cmp, label %cond.true, label %cond.false

cond.true:                                        ; preds = %entry
  %__name2 = getelementptr inbounds %"class.std::type_info", ptr %this1, i32 0, i32 1
  %2 = load ptr, ptr %__name2, align 8
  %add.ptr = getelementptr inbounds i8, ptr %2, i64 1
  br label %cond.end

cond.false:                                       ; preds = %entry
  %__name3 = getelementptr inbounds %"class.std::type_info", ptr %this1, i32 0, i32 1
  %3 = load ptr, ptr %__name3, align 8
  br label %cond.end

cond.end:                                         ; preds = %cond.false, %cond.true
  %cond = phi ptr [ %add.ptr, %cond.true ], [ %3, %cond.false ]
  ret ptr %cond
}

; Function Attrs: mustprogress nounwind uwtable
define linkonce_odr noundef zeroext i1 @_ZNKSt9type_infoeqERKS_(ptr noundef nonnull align 8 dereferenceable(16) %this, ptr noundef nonnull align 8 dereferenceable(16) %__arg) #0 comdat align 2 {
entry:
  %retval = alloca i1, align 1
  %this.addr = alloca ptr, align 8
  %__arg.addr = alloca ptr, align 8
  store ptr %this, ptr %this.addr, align 8
  store ptr %__arg, ptr %__arg.addr, align 8
  %this1 = load ptr, ptr %this.addr, align 8
  %__name = getelementptr inbounds %"class.std::type_info", ptr %this1, i32 0, i32 1
  %0 = load ptr, ptr %__name, align 8
  %1 = load ptr, ptr %__arg.addr, align 8
  %__name2 = getelementptr inbounds %"class.std::type_info", ptr %1, i32 0, i32 1
  %2 = load ptr, ptr %__name2, align 8
  %cmp = icmp eq ptr %0, %2
  br i1 %cmp, label %if.then, label %if.end

if.then:                                          ; preds = %entry
  store i1 true, ptr %retval, align 1
  br label %return

if.end:                                           ; preds = %entry
  %__name3 = getelementptr inbounds %"class.std::type_info", ptr %this1, i32 0, i32 1
  %3 = load ptr, ptr %__name3, align 8
  %arrayidx = getelementptr inbounds i8, ptr %3, i64 0
  %4 = load i8, ptr %arrayidx, align 1
  %conv = sext i8 %4 to i32
  %cmp4 = icmp ne i32 %conv, 42
  br i1 %cmp4, label %land.rhs, label %land.end

land.rhs:                                         ; preds = %if.end
  %__name5 = getelementptr inbounds %"class.std::type_info", ptr %this1, i32 0, i32 1
  %5 = load ptr, ptr %__name5, align 8
  %6 = load ptr, ptr %__arg.addr, align 8
  %call = call noundef ptr @_ZNKSt9type_info4nameEv(ptr noundef nonnull align 8 dereferenceable(16) %6) #6
  %call6 = call i32 @strcmp(ptr noundef %5, ptr noundef %call) #6
  %cmp7 = icmp eq i32 %call6, 0
  br label %land.end

land.end:                                         ; preds = %land.rhs, %if.end
  %7 = phi i1 [ false, %if.end ], [ %cmp7, %land.rhs ]
  store i1 %7, ptr %retval, align 1
  br label %return

return:                                           ; preds = %land.end, %if.then
  %8 = load i1, ptr %retval, align 1
  ret i1 %8
}

; Function Attrs: mustprogress nounwind uwtable
define linkonce_odr noundef zeroext i1 @_ZNKSt9type_infoneERKS_(ptr noundef nonnull align 8 dereferenceable(16) %this, ptr noundef nonnull align 8 dereferenceable(16) %__arg) #0 comdat align 2 {
entry:
  %this.addr = alloca ptr, align 8
  %__arg.addr = alloca ptr, align 8
  store ptr %this, ptr %this.addr, align 8
  store ptr %__arg, ptr %__arg.addr, align 8
  %this1 = load ptr, ptr %this.addr, align 8
  %0 = load ptr, ptr %__arg.addr, align 8
  %call = call noundef zeroext i1 @_ZNKSt9type_infoeqERKS_(ptr noundef nonnull align 8 dereferenceable(16) %this1, ptr noundef nonnull align 8 dereferenceable(16) %0) #6
  %lnot = xor i1 %call, true
  ret i1 %lnot
}

; Function Attrs: mustprogress uwtable
define noundef zeroext i1 @_ZNK6icu_7522RuleBasedBreakIteratoreqERKNS_13BreakIteratorE(ptr noundef nonnull align 8 dereferenceable(745) %this, ptr noundef nonnull align 8 dereferenceable(479) %that) unnamed_addr #1 align 2 {
entry:
  %retval = alloca i1, align 1
  %this.addr = alloca ptr, align 8
  %that.addr = alloca ptr, align 8
  %that2 = alloca ptr, align 8
  store ptr %this, ptr %this.addr, align 8
  store ptr %that, ptr %that.addr, align 8
  %this1 = load ptr, ptr %this.addr, align 8
  %0 = icmp eq ptr %this1, null
  br i1 %0, label %typeid.bad_typeid, label %typeid.end

typeid.bad_typeid:                                ; preds = %entry
  call void @__cxa_bad_typeid() #9
  unreachable

typeid.end:                                       ; preds = %entry
  %vtable = load ptr, ptr %this1, align 8
  %1 = getelementptr inbounds ptr, ptr %vtable, i64 -1
  %2 = load ptr, ptr %1, align 8
  %3 = load ptr, ptr %that.addr, align 8
  %vtable2 = load ptr, ptr %3, align 8
  %4 = getelementptr inbounds ptr, ptr %vtable2, i64 -1
  %5 = load ptr, ptr %4, align 8
  %call = call noundef zeroext i1 @_ZNKSt9type_infoneERKS_(ptr noundef nonnull align 8 dereferenceable(16) %2, ptr noundef nonnull align 8 dereferenceable(16) %5) #6
  br i1 %call, label %if.then, label %if.end

if.then:                                          ; preds = %typeid.end
  store i1 false, ptr %retval, align 1
  br label %return

if.end:                                           ; preds = %typeid.end
  %6 = load ptr, ptr %that.addr, align 8
  %cmp = icmp eq ptr %this1, %6
  br i1 %cmp, label %if.then3, label %if.end4

if.then3:                                         ; preds = %if.end
  store i1 true, ptr %retval, align 1
  br label %return

if.end4:                                          ; preds = %if.end
  %7 = load ptr, ptr %that.addr, align 8
  store ptr %7, ptr %that2, align 8
  %fText = getelementptr inbounds %"class.icu_75::RuleBasedBreakIterator", ptr %this1, i32 0, i32 2
  %8 = load ptr, ptr %that2, align 8
  %fText5 = getelementptr inbounds %"class.icu_75::RuleBasedBreakIterator", ptr %8, i32 0, i32 2
  %call6 = call signext i8 @utext_equals_75(ptr noundef %fText, ptr noundef %fText5)
  %tobool = icmp ne i8 %call6, 0
  br i1 %tobool, label %if.end8, label %if.then7

if.then7:                                         ; preds = %if.end4
  store i1 false, ptr %retval, align 1
  br label %return

if.end8:                                          ; preds = %if.end4
  %fPosition = getelementptr inbounds %"class.icu_75::RuleBasedBreakIterator", ptr %this1, i32 0, i32 5
  %9 = load i32, ptr %fPosition, align 4
  %10 = load ptr, ptr %that2, align 8
  %fPosition9 = getelementptr inbounds %"class.icu_75::RuleBasedBreakIterator", ptr %10, i32 0, i32 5
  %11 = load i32, ptr %fPosition9, align 4
  %cmp10 = icmp eq i32 %9, %11
  br i1 %cmp10, label %land.lhs.true, label %if.then19

land.lhs.true:                                    ; preds = %if.end8
  %fRuleStatusIndex = getelementptr inbounds %"class.icu_75::RuleBasedBreakIterator", ptr %this1, i32 0, i32 6
  %12 = load i32, ptr %fRuleStatusIndex, align 8
  %13 = load ptr, ptr %that2, align 8
  %fRuleStatusIndex11 = getelementptr inbounds %"class.icu_75::RuleBasedBreakIterator", ptr %13, i32 0, i32 6
  %14 = load i32, ptr %fRuleStatusIndex11, align 8
  %cmp12 = icmp eq i32 %12, %14
  br i1 %cmp12, label %land.lhs.true13, label %if.then19

land.lhs.true13:                                  ; preds = %land.lhs.true
  %fDone = getelementptr inbounds %"class.icu_75::RuleBasedBreakIterator", ptr %this1, i32 0, i32 16
  %15 = load i8, ptr %fDone, align 8
  %tobool14 = trunc i8 %15 to i1
  %conv = zext i1 %tobool14 to i32
  %16 = load ptr, ptr %that2, align 8
  %fDone15 = getelementptr inbounds %"class.icu_75::RuleBasedBreakIterator", ptr %16, i32 0, i32 16
  %17 = load i8, ptr %fDone15, align 8
  %tobool16 = trunc i8 %17 to i1
  %conv17 = zext i1 %tobool16 to i32
  %cmp18 = icmp eq i32 %conv, %conv17
  br i1 %cmp18, label %if.end20, label %if.then19

if.then19:                                        ; preds = %land.lhs.true13, %land.lhs.true, %if.end8
  store i1 false, ptr %retval, align 1
  br label %return

if.end20:                                         ; preds = %land.lhs.true13
  %18 = load ptr, ptr %that2, align 8
  %fData = getelementptr inbounds %"class.icu_75::RuleBasedBreakIterator", ptr %18, i32 0, i32 3
  %19 = load ptr, ptr %fData, align 8
  %fData21 = getelementptr inbounds %"class.icu_75::RuleBasedBreakIterator", ptr %this1, i32 0, i32 3
  %20 = load ptr, ptr %fData21, align 8
  %cmp22 = icmp eq ptr %19, %20
  br i1 %cmp22, label %if.then32, label %lor.lhs.false

lor.lhs.false:                                    ; preds = %if.end20
  %fData23 = getelementptr inbounds %"class.icu_75::RuleBasedBreakIterator", ptr %this1, i32 0, i32 3
  %21 = load ptr, ptr %fData23, align 8
  %cmp24 = icmp ne ptr %21, null
  br i1 %cmp24, label %land.lhs.true25, label %if.end33

land.lhs.true25:                                  ; preds = %lor.lhs.false
  %22 = load ptr, ptr %that2, align 8
  %fData26 = getelementptr inbounds %"class.icu_75::RuleBasedBreakIterator", ptr %22, i32 0, i32 3
  %23 = load ptr, ptr %fData26, align 8
  %cmp27 = icmp ne ptr %23, null
  br i1 %cmp27, label %land.lhs.true28, label %if.end33

land.lhs.true28:                                  ; preds = %land.lhs.true25
  %24 = load ptr, ptr %that2, align 8
  %fData29 = getelementptr inbounds %"class.icu_75::RuleBasedBreakIterator", ptr %24, i32 0, i32 3
  %25 = load ptr, ptr %fData29, align 8
  %fData30 = getelementptr inbounds %"class.icu_75::RuleBasedBreakIterator", ptr %this1, i32 0, i32 3
  %26 = load ptr, ptr %fData30, align 8
  %call31 = call noundef zeroext i1 @_ZNK6icu_7515RBBIDataWrappereqERKS0_(ptr noundef nonnull align 8 dereferenceable(137) %25, ptr noundef nonnull align 8 dereferenceable(137) %26)
  br i1 %call31, label %if.then32, label %if.end33

if.then32:                                        ; preds = %land.lhs.true28, %if.end20
  store i1 true, ptr %retval, align 1
  br label %return

if.end33:                                         ; preds = %land.lhs.true28, %land.lhs.true25, %lor.lhs.false
  store i1 false, ptr %retval, align 1
  br label %return

return:                                           ; preds = %if.end33, %if.then32, %if.then19, %if.then7, %if.then3, %if.then
  %27 = load i1, ptr %retval, align 1
  ret i1 %27
}