; Function Attrs: mustprogress uwtable
define noundef zeroext i1 @_ZNK6icu_7522RuleBasedBreakIteratoreqERKNS_13BreakIteratorE(ptr noundef nonnull align 8 dereferenceable(745) %this, ptr noundef nonnull align 8 dereferenceable(479) %that) unnamed_addr #1 align 2 {
entry:
  %vtable = load ptr, ptr %this, align 8
  %0 = getelementptr inbounds i8, ptr %vtable, i64 -8
  %1 = load ptr, ptr %0, align 8
  %vtable2 = load ptr, ptr %that, align 8
  %2 = getelementptr inbounds i8, ptr %vtable2, i64 -8
  %3 = load ptr, ptr %2, align 8
  %__name.i.i = getelementptr inbounds i8, ptr %1, i64 8
  %4 = load ptr, ptr %__name.i.i, align 8
  %__name2.i.i = getelementptr inbounds i8, ptr %3, i64 8
  %5 = load ptr, ptr %__name2.i.i, align 8
  %cmp.i.i = icmp eq ptr %4, %5
  br i1 %cmp.i.i, label %if.end, label %if.end.i.i

if.end.i.i:                                       ; preds = %entry
  %6 = load i8, ptr %4, align 1
  %cmp4.not.i.i = icmp eq i8 %6, 42
  br i1 %cmp4.not.i.i, label %return, label %_ZNKSt9type_infoneERKS_.exit

_ZNKSt9type_infoneERKS_.exit:                     ; preds = %if.end.i.i
  %7 = load i8, ptr %5, align 1
  %cmp.i.i.i = icmp eq i8 %7, 42
  %cond.idx.i.i.i = zext i1 %cmp.i.i.i to i64
  %cond.i.i.i = getelementptr inbounds i8, ptr %5, i64 %cond.idx.i.i.i
  %call6.i.i = tail call i32 @strcmp(ptr noundef nonnull dereferenceable(1) %4, ptr noundef nonnull dereferenceable(1) %cond.i.i.i) #15
  %cmp7.i.i.not = icmp eq i32 %call6.i.i, 0
  br i1 %cmp7.i.i.not, label %if.end, label %return

if.end:                                           ; preds = %entry, %_ZNKSt9type_infoneERKS_.exit
  %cmp = icmp eq ptr %this, %that
  br i1 %cmp, label %return, label %if.end4

if.end4:                                          ; preds = %if.end
  %fText = getelementptr inbounds i8, ptr %this, i64 480
  %fText5 = getelementptr inbounds i8, ptr %that, i64 480
  %call6 = tail call signext i8 @utext_equals_75(ptr noundef nonnull %fText, ptr noundef nonnull %fText5)
  %tobool.not = icmp eq i8 %call6, 0
  br i1 %tobool.not, label %return, label %if.end8

if.end8:                                          ; preds = %if.end4
  %fPosition = getelementptr inbounds i8, ptr %this, i64 636
  %8 = load i32, ptr %fPosition, align 4
  %fPosition9 = getelementptr inbounds i8, ptr %that, i64 636
  %9 = load i32, ptr %fPosition9, align 4
  %cmp10 = icmp eq i32 %8, %9
  br i1 %cmp10, label %land.lhs.true, label %return

land.lhs.true:                                    ; preds = %if.end8
  %fRuleStatusIndex = getelementptr inbounds i8, ptr %this, i64 640
  %10 = load i32, ptr %fRuleStatusIndex, align 8
  %fRuleStatusIndex11 = getelementptr inbounds i8, ptr %that, i64 640
  %11 = load i32, ptr %fRuleStatusIndex11, align 8
  %cmp12 = icmp eq i32 %10, %11
  br i1 %cmp12, label %land.lhs.true13, label %return

land.lhs.true13:                                  ; preds = %land.lhs.true
  %fDone = getelementptr inbounds i8, ptr %this, i64 728
  %12 = load i8, ptr %fDone, align 8
  %fDone15 = getelementptr inbounds i8, ptr %that, i64 728
  %13 = load i8, ptr %fDone15, align 8
  %14 = xor i8 %13, %12
  %15 = and i8 %14, 1
  %cmp18 = icmp eq i8 %15, 0
  br i1 %cmp18, label %if.end20, label %return

if.end20:                                         ; preds = %land.lhs.true13
  %fData = getelementptr inbounds i8, ptr %that, i64 624
  %16 = load ptr, ptr %fData, align 8
  %fData21 = getelementptr inbounds i8, ptr %this, i64 624
  %17 = load ptr, ptr %fData21, align 8
  %cmp22 = icmp eq ptr %16, %17
  br i1 %cmp22, label %return, label %lor.lhs.false

lor.lhs.false:                                    ; preds = %if.end20
  %cmp24.not = icmp eq ptr %17, null
  %cmp27.not = icmp eq ptr %16, null
  %or.cond = or i1 %cmp27.not, %cmp24.not
  br i1 %or.cond, label %if.end33, label %land.lhs.true28

land.lhs.true28:                                  ; preds = %lor.lhs.false
  %call31 = tail call noundef zeroext i1 @_ZNK6icu_7515RBBIDataWrappereqERKS0_(ptr noundef nonnull align 8 dereferenceable(137) %16, ptr noundef nonnull align 8 dereferenceable(137) %17)
  br i1 %call31, label %return, label %if.end33

if.end33:                                         ; preds = %land.lhs.true28, %lor.lhs.false
  br label %return

return:                                           ; preds = %if.end.i.i, %if.end20, %land.lhs.true28, %if.end8, %land.lhs.true, %land.lhs.true13, %if.end4, %if.end, %_ZNKSt9type_infoneERKS_.exit, %if.end33
  %retval.0 = phi i1 [ false, %if.end33 ], [ false, %_ZNKSt9type_infoneERKS_.exit ], [ true, %if.end ], [ false, %if.end4 ], [ false, %land.lhs.true13 ], [ false, %land.lhs.true ], [ false, %if.end8 ], [ true, %land.lhs.true28 ], [ true, %if.end20 ], [ false, %if.end.i.i ]
  ret i1 %retval.0
}